#include <math.h>
#include <stdio.h>
#include <stdlib.h>
#include <string.h>

char x[5];
int main()
{
	void copy(char x[5],char a);
	int n,l,i,j,max;
	char a[600];
	int count[500]={0};
	int alo[500];
	char com[500][5];
	scanf("%d\n",&n);
	gets(a);
	l=strlen(a)-1;
	for(i=0;i<=499;i++)
		*(alo+i)=i;
	for(i=0;i+n-1<=l;i++)
	{
		for(j=0;j<=n-1;j++)
		{
			*(*(com+i)+j)=*(a+i+j);
		}
		*(*(com+i)+j)='\0';
	}
	for(i=0;i+n-1<=l;i++)
	{
		for(j=i;j+n-1<=l;j++)
		{
			if(strcmp(*(com+j),*(com+i))==0)
				(*(count+i))++;
		}
	}
	max=*(count+0);
	for(i=0;i+n-1<l;i++)
	{
		if(max<*(count+i))
			max=*(count+i);
	}
	if(max!=1)
	printf("%d\n",max);
	else
	{
		printf("NO");
		return 0;
	}
	for(i=0;i+n-1<l;i++)
	{
		if(*(count+i)==max)
		{
			printf("%s\n",*(com+i));
		}
	}
	return 0;
}
